target datalayout = "e-m:e-p270:32:32-p271:32:32-p272:64:64-i64:64-i128:128-f80:128-n8:16:32:64-S128"
target triple = "x86_64-pc-linux-gnu"

%"class.std::__cxx11::basic_string" = type { %"struct.std::__cxx11::basic_string<char>::_Alloc_hider", i64, %union.anon }
%"struct.std::__cxx11::basic_string<char>::_Alloc_hider" = type { ptr }
%union.anon = type { i64, [8 x i8] }
%class.AstNode = type { ptr, ptr, ptr, ptr, ptr, ptr, ptr, ptr, %class.VNType, %struct.anon, i8, i32, ptr, ptr, ptr, ptr, %class.VNUser, i32, i32, %class.VNUser, %class.VNUser, i32, i32, %class.VNUser }
%class.VNType = type { i16 }
%struct.anon = type { i8 }
%class.VNUser = type { %union.anon.0 }
%union.anon.0 = type { ptr }
%class.VSigning = type { i8 }
%class.AstNodeDType = type <{ %class.AstNode, i32, i32, %class.VSigning, i8, [6 x i8] }>

@.str = private unnamed_addr constant [1 x i8] zeroinitializer, align 1

; Function Attrs: mustprogress nounwind uwtable
define linkonce_odr dso_local noundef i32 @_ZNK12AstNodeDType5widthEv(ptr noundef nonnull align 8 dereferenceable(162) %0) #5 comdat align 2 {
  %2 = alloca ptr, align 8
  store ptr %0, ptr %2, align 8
  %3 = load ptr, ptr %2, align 8
  %4 = getelementptr inbounds %class.AstNodeDType, ptr %3, i32 0, i32 1
  %5 = load i32, ptr %4, align 8
  ret i32 %5
}

; Function Attrs: mustprogress nounwind uwtable
define linkonce_odr dso_local noundef ptr @_ZNK7AstNode6dtypepEv(ptr noundef nonnull align 8 dereferenceable(152) %0) #5 comdat align 2 {
  %2 = alloca ptr, align 8
  store ptr %0, ptr %2, align 8
  %3 = load ptr, ptr %2, align 8
  %4 = getelementptr inbounds %class.AstNode, ptr %3, i32 0, i32 12
  %5 = load ptr, ptr %4, align 8
  ret ptr %5
}

; Function Attrs: mustprogress uwtable
define linkonce_odr dso_local noundef i32 @_ZNK7AstNode5widthEv(ptr noundef nonnull align 8 dereferenceable(152) %0) #4 comdat align 2 {
  %2 = alloca ptr, align 8
  store ptr %0, ptr %2, align 8
  %3 = load ptr, ptr %2, align 8
  %4 = call noundef ptr @_ZNK7AstNode6dtypepEv(ptr noundef nonnull align 8 dereferenceable(152) %3)
  %5 = icmp ne ptr %4, null
  br i1 %5, label %6, label %9

6:                                                ; preds = %1
  %7 = call noundef ptr @_ZNK7AstNode6dtypepEv(ptr noundef nonnull align 8 dereferenceable(152) %3)
  %8 = call noundef i32 @_ZNK12AstNodeDType5widthEv(ptr noundef nonnull align 8 dereferenceable(162) %7)
  br label %10

9:                                                ; preds = %1
  br label %10

10:                                               ; preds = %9, %6
  %11 = phi i32 [ %8, %6 ], [ 0, %9 ]
  ret i32 %11
}

; Function Attrs: mustprogress nounwind uwtable
define linkonce_odr dso_local noundef ptr @_ZNK7AstNode4op3pEv(ptr noundef nonnull align 8 dereferenceable(152) %0) #5 comdat align 2 {
  %2 = alloca ptr, align 8
  store ptr %0, ptr %2, align 8
  %3 = load ptr, ptr %2, align 8
  %4 = getelementptr inbounds %class.AstNode, ptr %3, i32 0, i32 5
  %5 = load ptr, ptr %4, align 8
  ret ptr %5
}

; Function Attrs: mustprogress nounwind uwtable
define linkonce_odr dso_local noundef ptr @_ZNK7AstNode4op2pEv(ptr noundef nonnull align 8 dereferenceable(152) %0) #5 comdat align 2 {
  %2 = alloca ptr, align 8
  store ptr %0, ptr %2, align 8
  %3 = load ptr, ptr %2, align 8
  %4 = getelementptr inbounds %class.AstNode, ptr %3, i32 0, i32 4
  %5 = load ptr, ptr %4, align 8
  ret ptr %5
}

; Function Attrs: mustprogress nounwind uwtable
define linkonce_odr dso_local noundef ptr @_ZNK7AstNode4op1pEv(ptr noundef nonnull align 8 dereferenceable(152) %0) #5 comdat align 2 {
  %2 = alloca ptr, align 8
  store ptr %0, ptr %2, align 8
  %3 = load ptr, ptr %2, align 8
  %4 = getelementptr inbounds %class.AstNode, ptr %3, i32 0, i32 3
  %5 = load ptr, ptr %4, align 8
  ret ptr %5
}

; Function Attrs: mustprogress uwtable
define linkonce_odr dso_local noundef zeroext i1 @_ZNK7AstNode6isWideEv(ptr noundef nonnull align 8 dereferenceable(152) %0) #4 comdat align 2 {
  %2 = alloca ptr, align 8
  store ptr %0, ptr %2, align 8
  %3 = load ptr, ptr %2, align 8
  %4 = call noundef i32 @_ZNK7AstNode5widthEv(ptr noundef nonnull align 8 dereferenceable(152) %3)
  %5 = icmp sgt i32 %4, 64
  ret i1 %5
}

; Function Attrs: mustprogress nounwind uwtable
define linkonce_odr dso_local noundef zeroext i1 @_ZSteqIcSt11char_traitsIcESaIcEEbRKNSt7__cxx1112basic_stringIT_T0_T1_EEPKS5_(ptr noundef nonnull align 8 dereferenceable(32) %0, ptr noundef %1) #5 comdat {
  %3 = alloca ptr, align 8
  %4 = alloca ptr, align 8
  store ptr %0, ptr %3, align 8
  store ptr %1, ptr %4, align 8
  %5 = load ptr, ptr %3, align 8
  %6 = load ptr, ptr %4, align 8
  %7 = call noundef i32 @_ZNKSt7__cxx1112basic_stringIcSt11char_traitsIcESaIcEE7compareEPKc(ptr noundef nonnull align 8 dereferenceable(32) %5, ptr noundef %6) #3
  %8 = icmp eq i32 %7, 0
  ret i1 %8
}

; Function Attrs: mustprogress uwtable
define dso_local noundef zeroext i1 @_ZN9EmitCFunc12emitSimpleOkEP11AstNodeExpr(ptr noundef nonnull align 8 dereferenceable(361) %0, ptr noundef %1) #4 align 2 personality ptr @__gxx_personality_v0 {
  %3 = alloca i1, align 1
  %4 = alloca ptr, align 8
  %5 = alloca ptr, align 8
  %6 = alloca %"class.std::__cxx11::basic_string", align 8
  %7 = alloca ptr, align 8
  %8 = alloca i32, align 4
  store ptr %0, ptr %4, align 8
  store ptr %1, ptr %5, align 8
  %9 = load ptr, ptr %5, align 8
  %10 = load ptr, ptr %9, align 8
  %11 = getelementptr inbounds ptr, ptr %10, i64 39
  %12 = load ptr, ptr %11, align 8
  call void %12(ptr dead_on_unwind writable sret(%"class.std::__cxx11::basic_string") align 8 %6, ptr noundef nonnull align 8 dereferenceable(152) %9)
  %13 = invoke noundef zeroext i1 @_ZSteqIcSt11char_traitsIcESaIcEEbRKNSt7__cxx1112basic_stringIT_T0_T1_EEPKS5_(ptr noundef nonnull align 8 dereferenceable(32) %6, ptr noundef @.str)
          to label %14 unwind label %16

14:                                               ; preds = %2
  call void @_ZNSt7__cxx1112basic_stringIcSt11char_traitsIcESaIcEED1Ev(ptr noundef nonnull align 8 dereferenceable(32) %6) #3
  br i1 %13, label %15, label %20

15:                                               ; preds = %14
  store i1 false, ptr %3, align 1
  br label %52

16:                                               ; preds = %2
  %17 = landingpad { ptr, i32 }
          cleanup
  %18 = extractvalue { ptr, i32 } %17, 0
  store ptr %18, ptr %7, align 8
  %19 = extractvalue { ptr, i32 } %17, 1
  store i32 %19, ptr %8, align 4
  call void @_ZNSt7__cxx1112basic_stringIcSt11char_traitsIcESaIcEED1Ev(ptr noundef nonnull align 8 dereferenceable(32) %6) #3
  br label %54

20:                                               ; preds = %14
  %21 = load ptr, ptr %5, align 8
  %22 = call noundef zeroext i1 @_ZNK7AstNode6isWideEv(ptr noundef nonnull align 8 dereferenceable(152) %21)
  br i1 %22, label %23, label %24

23:                                               ; preds = %20
  store i1 false, ptr %3, align 1
  br label %52

24:                                               ; preds = %20
  %25 = load ptr, ptr %5, align 8
  %26 = call noundef ptr @_ZNK7AstNode4op1pEv(ptr noundef nonnull align 8 dereferenceable(152) %25)
  %27 = icmp ne ptr %26, null
  br i1 %27, label %28, label %33

28:                                               ; preds = %24
  %29 = load ptr, ptr %5, align 8
  %30 = call noundef ptr @_ZNK7AstNode4op1pEv(ptr noundef nonnull align 8 dereferenceable(152) %29)
  %31 = call noundef zeroext i1 @_ZNK7AstNode6isWideEv(ptr noundef nonnull align 8 dereferenceable(152) %30)
  br i1 %31, label %32, label %33

32:                                               ; preds = %28
  store i1 false, ptr %3, align 1
  br label %52

33:                                               ; preds = %28, %24
  %34 = load ptr, ptr %5, align 8
  %35 = call noundef ptr @_ZNK7AstNode4op2pEv(ptr noundef nonnull align 8 dereferenceable(152) %34)
  %36 = icmp ne ptr %35, null
  br i1 %36, label %37, label %42

37:                                               ; preds = %33
  %38 = load ptr, ptr %5, align 8
  %39 = call noundef ptr @_ZNK7AstNode4op2pEv(ptr noundef nonnull align 8 dereferenceable(152) %38)
  %40 = call noundef zeroext i1 @_ZNK7AstNode6isWideEv(ptr noundef nonnull align 8 dereferenceable(152) %39)
  br i1 %40, label %41, label %42

41:                                               ; preds = %37
  store i1 false, ptr %3, align 1
  br label %52

42:                                               ; preds = %37, %33
  %43 = load ptr, ptr %5, align 8
  %44 = call noundef ptr @_ZNK7AstNode4op3pEv(ptr noundef nonnull align 8 dereferenceable(152) %43)
  %45 = icmp ne ptr %44, null
  br i1 %45, label %46, label %51

46:                                               ; preds = %42
  %47 = load ptr, ptr %5, align 8
  %48 = call noundef ptr @_ZNK7AstNode4op3pEv(ptr noundef nonnull align 8 dereferenceable(152) %47)
  %49 = call noundef zeroext i1 @_ZNK7AstNode6isWideEv(ptr noundef nonnull align 8 dereferenceable(152) %48)
  br i1 %49, label %50, label %51

50:                                               ; preds = %46
  store i1 false, ptr %3, align 1
  br label %52

51:                                               ; preds = %46, %42
  store i1 true, ptr %3, align 1
  br label %52

52:                                               ; preds = %51, %50, %41, %32, %23, %15
  %53 = load i1, ptr %3, align 1
  ret i1 %53

54:                                               ; preds = %16
  %55 = load ptr, ptr %7, align 8
  %56 = load i32, ptr %8, align 4
  %57 = insertvalue { ptr, i32 } poison, ptr %55, 0
  %58 = insertvalue { ptr, i32 } %57, i32 %56, 1
  resume { ptr, i32 } %58
}