; Function Attrs: mustprogress uwtable
define dso_local noundef zeroext i1 @_ZN9EmitCFunc12emitSimpleOkEP11AstNodeExpr(ptr nocapture noundef nonnull readnone align 8 dereferenceable(361) %0, ptr noundef %1) local_unnamed_addr #3 align 2 personality ptr @__gxx_personality_v0 {
  %3 = alloca %"class.std::__cxx11::basic_string", align 8
  %4 = load ptr, ptr %1, align 8
  %5 = getelementptr inbounds i8, ptr %4, i64 312
  %6 = load ptr, ptr %5, align 8
  call void %6(ptr dead_on_unwind nonnull writable sret(%"class.std::__cxx11::basic_string") align 8 %3, ptr noundef nonnull align 8 dereferenceable(152) %1)
  %7 = call noundef i32 @_ZNKSt7__cxx1112basic_stringIcSt11char_traitsIcESaIcEE7compareEPKc(ptr noundef nonnull align 8 dereferenceable(32) %3, ptr noundef nonnull @.str) #17
  %8 = icmp eq i32 %7, 0
  call void @_ZNSt7__cxx1112basic_stringIcSt11char_traitsIcESaIcEED1Ev(ptr noundef nonnull align 8 dereferenceable(32) %3) #17
  br i1 %8, label %39, label %9

9:                                                ; preds = %2
  %10 = getelementptr inbounds i8, ptr %1, i64 72
  %11 = load ptr, ptr %10, align 8
  %.not.i.i = icmp eq ptr %11, null
  br i1 %.not.i.i, label %_ZNK7AstNode6isWideEv.exit.thread, label %_ZNK7AstNode6isWideEv.exit

_ZNK7AstNode6isWideEv.exit:                       ; preds = %9
  %12 = getelementptr inbounds i8, ptr %11, i64 152
  %13 = load i32, ptr %12, align 8
  %14 = icmp sgt i32 %13, 64
  br i1 %14, label %39, label %_ZNK7AstNode6isWideEv.exit.thread

_ZNK7AstNode6isWideEv.exit.thread:                ; preds = %9, %_ZNK7AstNode6isWideEv.exit
  %15 = getelementptr inbounds i8, ptr %1, i64 24
  %16 = load ptr, ptr %15, align 8
  %.not = icmp eq ptr %16, null
  br i1 %.not, label %_ZNK7AstNode6isWideEv.exit12.thread, label %17

17:                                               ; preds = %_ZNK7AstNode6isWideEv.exit.thread
  %18 = getelementptr inbounds i8, ptr %16, i64 72
  %19 = load ptr, ptr %18, align 8
  %.not.i.i11 = icmp eq ptr %19, null
  br i1 %.not.i.i11, label %_ZNK7AstNode6isWideEv.exit12.thread, label %_ZNK7AstNode6isWideEv.exit12

_ZNK7AstNode6isWideEv.exit12:                     ; preds = %17
  %20 = getelementptr inbounds i8, ptr %19, i64 152
  %21 = load i32, ptr %20, align 8
  %22 = icmp sgt i32 %21, 64
  br i1 %22, label %39, label %_ZNK7AstNode6isWideEv.exit12.thread

_ZNK7AstNode6isWideEv.exit12.thread:              ; preds = %17, %_ZNK7AstNode6isWideEv.exit12, %_ZNK7AstNode6isWideEv.exit.thread
  %23 = getelementptr inbounds i8, ptr %1, i64 32
  %24 = load ptr, ptr %23, align 8
  %.not9 = icmp eq ptr %24, null
  br i1 %.not9, label %_ZNK7AstNode6isWideEv.exit14.thread, label %25

25:                                               ; preds = %_ZNK7AstNode6isWideEv.exit12.thread
  %26 = getelementptr inbounds i8, ptr %24, i64 72
  %27 = load ptr, ptr %26, align 8
  %.not.i.i13 = icmp eq ptr %27, null
  br i1 %.not.i.i13, label %_ZNK7AstNode6isWideEv.exit14.thread, label %_ZNK7AstNode6isWideEv.exit14

_ZNK7AstNode6isWideEv.exit14:                     ; preds = %25
  %28 = getelementptr inbounds i8, ptr %27, i64 152
  %29 = load i32, ptr %28, align 8
  %30 = icmp sgt i32 %29, 64
  br i1 %30, label %39, label %_ZNK7AstNode6isWideEv.exit14.thread

_ZNK7AstNode6isWideEv.exit14.thread:              ; preds = %25, %_ZNK7AstNode6isWideEv.exit14, %_ZNK7AstNode6isWideEv.exit12.thread
  %31 = getelementptr inbounds i8, ptr %1, i64 40
  %32 = load ptr, ptr %31, align 8
  %.not10 = icmp eq ptr %32, null
  br i1 %.not10, label %_ZNK7AstNode6isWideEv.exit16.thread, label %33

33:                                               ; preds = %_ZNK7AstNode6isWideEv.exit14.thread
  %34 = getelementptr inbounds i8, ptr %32, i64 72
  %35 = load ptr, ptr %34, align 8
  %.not.i.i15 = icmp eq ptr %35, null
  br i1 %.not.i.i15, label %_ZNK7AstNode6isWideEv.exit16.thread, label %_ZNK7AstNode6isWideEv.exit16

_ZNK7AstNode6isWideEv.exit16:                     ; preds = %33
  %36 = getelementptr inbounds i8, ptr %35, i64 152
  %37 = load i32, ptr %36, align 8
  %38 = icmp sgt i32 %37, 64
  br i1 %38, label %39, label %_ZNK7AstNode6isWideEv.exit16.thread

_ZNK7AstNode6isWideEv.exit16.thread:              ; preds = %33, %_ZNK7AstNode6isWideEv.exit16, %_ZNK7AstNode6isWideEv.exit14.thread
  br label %39

39:                                               ; preds = %_ZNK7AstNode6isWideEv.exit16, %_ZNK7AstNode6isWideEv.exit14, %_ZNK7AstNode6isWideEv.exit12, %_ZNK7AstNode6isWideEv.exit, %2, %_ZNK7AstNode6isWideEv.exit16.thread
  %.0 = phi i1 [ true, %_ZNK7AstNode6isWideEv.exit16.thread ], [ false, %2 ], [ false, %_ZNK7AstNode6isWideEv.exit ], [ false, %_ZNK7AstNode6isWideEv.exit12 ], [ false, %_ZNK7AstNode6isWideEv.exit14 ], [ false, %_ZNK7AstNode6isWideEv.exit16 ]
  ret i1 %.0
}